target datalayout = "e-m:e-p270:32:32-p271:32:32-p272:64:64-i64:64-i128:128-f80:128-n8:16:32:64-S128"
target triple = "x86_64-pc-linux-gnu"

%struct.MessageHeader = type { [4 x i8], %struct.Version, i8, i8, i32, i32, i32, ptr }
%struct.Version = type { i8, i8 }

@g_ascii_table = external constant ptr, align 8
@.str.2 = private unnamed_addr constant [12 x i8] c"packet-giop\00", align 1
@.str.3 = private unnamed_addr constant [30 x i8] c"epan/dissectors/packet-giop.c\00", align 1
@__func__.get_CDR_wstring = private unnamed_addr constant [16 x i8] c"get_CDR_wstring\00", align 1
@.str.4 = private unnamed_addr constant [55 x i8] c"giop:get_CDR_wstring, length %u > 200, truncating to 5\00", align 1

; Function Attrs: alwaysinline nounwind
define internal ptr @memcpy.inline(ptr noalias %0, ptr noalias %1, i64 %2) #4 {
  %4 = alloca ptr, align 8
  %5 = alloca ptr, align 8
  %6 = alloca i64, align 8
  store ptr %0, ptr %4, align 8
  store ptr %1, ptr %5, align 8
  store i64 %2, ptr %6, align 8
  %7 = load ptr, ptr %4, align 8
  %8 = load ptr, ptr %5, align 8
  %9 = load i64, ptr %6, align 8
  %10 = load ptr, ptr %4, align 8
  %11 = call i64 @llvm.objectsize.i64.p0(ptr %10, i1 false, i1 true, i1 true)
  %12 = call ptr @__memcpy_chk(ptr noundef %7, ptr noundef %8, i64 noundef %9, i64 noundef %11) #14
  ret ptr %12
}

; Function Attrs: null_pointer_is_valid sspstrong uwtable
define ptr @make_printable_string(ptr noundef %0, ptr noundef %1, i32 noundef %2) #0 {
  %4 = alloca ptr, align 8
  %5 = alloca ptr, align 8
  %6 = alloca i32, align 4
  %7 = alloca i32, align 4
  %8 = alloca ptr, align 8
  store ptr %0, ptr %4, align 8
  store ptr %1, ptr %5, align 8
  store i32 %2, ptr %6, align 4
  call void @llvm.lifetime.start.p0(i64 4, ptr %7) #14
  call void @llvm.lifetime.start.p0(i64 8, ptr %8) #14
  %9 = load ptr, ptr %4, align 8
  %10 = load i32, ptr %6, align 4
  %11 = add i32 %10, 1
  %12 = zext i32 %11 to i64
  %13 = call noalias ptr @wmem_alloc0(ptr noundef %9, i64 noundef %12) #15
  store ptr %13, ptr %8, align 8
  %14 = load ptr, ptr %8, align 8
  %15 = load ptr, ptr %5, align 8
  %16 = load i32, ptr %6, align 4
  %17 = zext i32 %16 to i64
  %18 = call ptr @memcpy.inline(ptr noundef %14, ptr noundef %15, i64 noundef %17) #14
  store i32 0, ptr %7, align 4
  br label %19

19:                                               ; preds = %42, %3
  %20 = load i32, ptr %7, align 4
  %21 = load i32, ptr %6, align 4
  %22 = icmp ult i32 %20, %21
  br i1 %22, label %23, label %45

23:                                               ; preds = %19
  %24 = load ptr, ptr @g_ascii_table, align 8
  %25 = load ptr, ptr %8, align 8
  %26 = load i32, ptr %7, align 4
  %27 = zext i32 %26 to i64
  %28 = getelementptr i8, ptr %25, i64 %27
  %29 = load i8, ptr %28, align 1
  %30 = zext i8 %29 to i64
  %31 = getelementptr i16, ptr %24, i64 %30
  %32 = load i16, ptr %31, align 2
  %33 = zext i16 %32 to i32
  %34 = and i32 %33, 64
  %35 = icmp ne i32 %34, 0
  br i1 %35, label %41, label %36

36:                                               ; preds = %23
  %37 = load ptr, ptr %8, align 8
  %38 = load i32, ptr %7, align 4
  %39 = zext i32 %38 to i64
  %40 = getelementptr i8, ptr %37, i64 %39
  store i8 46, ptr %40, align 1
  br label %41

41:                                               ; preds = %36, %23
  br label %42

42:                                               ; preds = %41
  %43 = load i32, ptr %7, align 4
  %44 = add i32 %43, 1
  store i32 %44, ptr %7, align 4
  br label %19, !llvm.loop !6

45:                                               ; preds = %19
  %46 = load ptr, ptr %8, align 8
  call void @llvm.lifetime.end.p0(i64 8, ptr %8) #14
  call void @llvm.lifetime.end.p0(i64 4, ptr %7) #14
  ret ptr %46
}

; Function Attrs: null_pointer_is_valid sspstrong uwtable
define void @get_CDR_octet_seq(ptr noundef %0, ptr noundef %1, ptr noundef %2, ptr noundef %3, i32 noundef %4) #0 {
  %6 = alloca ptr, align 8
  %7 = alloca ptr, align 8
  %8 = alloca ptr, align 8
  %9 = alloca ptr, align 8
  %10 = alloca i32, align 4
  %11 = alloca ptr, align 8
  store ptr %0, ptr %6, align 8
  store ptr %1, ptr %7, align 8
  store ptr %2, ptr %8, align 8
  store ptr %3, ptr %9, align 8
  store i32 %4, ptr %10, align 4
  call void @llvm.lifetime.start.p0(i64 8, ptr %11) #14
  %12 = load ptr, ptr %7, align 8
  %13 = load ptr, ptr %9, align 8
  %14 = load i32, ptr %13, align 4
  %15 = load i32, ptr %10, align 4
  call void @tvb_ensure_bytes_exist(ptr noundef %12, i32 noundef %14, i32 noundef %15)
  %16 = load ptr, ptr %6, align 8
  %17 = load i32, ptr %10, align 4
  %18 = add i32 %17, 1
  %19 = icmp ule i32 %18, 0
  br i1 %19, label %26, label %20

20:                                               ; preds = %5
  %21 = load i32, ptr %10, align 4
  %22 = add i32 %21, 1
  %23 = zext i32 %22 to i64
  %24 = udiv i64 9223372036854775807, %23
  %25 = icmp ugt i64 1, %24
  br i1 %25, label %26, label %27

26:                                               ; preds = %20, %5
  br label %32

27:                                               ; preds = %20
  %28 = load i32, ptr %10, align 4
  %29 = add i32 %28, 1
  %30 = zext i32 %29 to i64
  %31 = mul i64 1, %30
  br label %32

32:                                               ; preds = %27, %26
  %33 = phi i64 [ 0, %26 ], [ %31, %27 ]
  %34 = call noalias ptr @wmem_alloc0(ptr noundef %16, i64 noundef %33) #15
  store ptr %34, ptr %11, align 8
  %35 = load ptr, ptr %7, align 8
  %36 = load ptr, ptr %11, align 8
  %37 = load ptr, ptr %9, align 8
  %38 = load i32, ptr %37, align 4
  %39 = load i32, ptr %10, align 4
  %40 = zext i32 %39 to i64
  %41 = call ptr @tvb_memcpy(ptr noundef %35, ptr noundef %36, i32 noundef %38, i64 noundef %40)
  %42 = load ptr, ptr %11, align 8
  %43 = load ptr, ptr %8, align 8
  store ptr %42, ptr %43, align 8
  %44 = load i32, ptr %10, align 4
  %45 = load ptr, ptr %9, align 8
  %46 = load i32, ptr %45, align 4
  %47 = add i32 %46, %44
  store i32 %47, ptr %45, align 4
  call void @llvm.lifetime.end.p0(i64 8, ptr %11) #14
  ret void
}

; Function Attrs: null_pointer_is_valid sspstrong uwtable
define i32 @get_CDR_ulong(ptr noundef %0, ptr noundef %1, i1 noundef zeroext %2, i32 noundef %3) #0 {
  %5 = alloca ptr, align 8
  %6 = alloca ptr, align 8
  %7 = alloca i8, align 1
  %8 = alloca i32, align 4
  %9 = alloca i32, align 4
  store ptr %0, ptr %5, align 8
  store ptr %1, ptr %6, align 8
  %10 = zext i1 %2 to i8
  store i8 %10, ptr %7, align 1
  store i32 %3, ptr %8, align 4
  call void @llvm.lifetime.start.p0(i64 4, ptr %9) #14
  br label %11

11:                                               ; preds = %18, %4
  %12 = load ptr, ptr %6, align 8
  %13 = load i32, ptr %12, align 4
  %14 = load i32, ptr %8, align 4
  %15 = add i32 %13, %14
  %16 = srem i32 %15, 4
  %17 = icmp ne i32 %16, 0
  br i1 %17, label %18, label %22

18:                                               ; preds = %11
  %19 = load ptr, ptr %6, align 8
  %20 = load i32, ptr %19, align 4
  %21 = add i32 %20, 1
  store i32 %21, ptr %19, align 4
  br label %11, !llvm.loop !10

22:                                               ; preds = %11
  %23 = load i8, ptr %7, align 1, !range !8, !noundef !9
  %24 = trunc i8 %23 to i1
  br i1 %24, label %25, label %30

25:                                               ; preds = %22
  %26 = load ptr, ptr %5, align 8
  %27 = load ptr, ptr %6, align 8
  %28 = load i32, ptr %27, align 4
  %29 = call i32 @tvb_get_ntohl(ptr noundef %26, i32 noundef %28)
  br label %35

30:                                               ; preds = %22
  %31 = load ptr, ptr %5, align 8
  %32 = load ptr, ptr %6, align 8
  %33 = load i32, ptr %32, align 4
  %34 = call i32 @tvb_get_letohl(ptr noundef %31, i32 noundef %33)
  br label %35

35:                                               ; preds = %30, %25
  %36 = phi i32 [ %29, %25 ], [ %34, %30 ]
  store i32 %36, ptr %9, align 4
  %37 = load ptr, ptr %6, align 8
  %38 = load i32, ptr %37, align 4
  %39 = add i32 %38, 4
  store i32 %39, ptr %37, align 4
  %40 = load i32, ptr %9, align 4
  call void @llvm.lifetime.end.p0(i64 4, ptr %9) #14
  ret i32 %40
}

; Function Attrs: null_pointer_is_valid sspstrong uwtable
define i32 @get_CDR_wstring(ptr noundef %0, ptr noundef %1, ptr noundef %2, ptr noundef %3, i1 noundef zeroext %4, i32 noundef %5, ptr noundef %6) #0 {
  %8 = alloca ptr, align 8
  %9 = alloca ptr, align 8
  %10 = alloca ptr, align 8
  %11 = alloca ptr, align 8
  %12 = alloca i8, align 1
  %13 = alloca i32, align 4
  %14 = alloca ptr, align 8
  %15 = alloca i32, align 4
  %16 = alloca i32, align 4
  %17 = alloca ptr, align 8
  store ptr %0, ptr %8, align 8
  store ptr %1, ptr %9, align 8
  store ptr %2, ptr %10, align 8
  store ptr %3, ptr %11, align 8
  %18 = zext i1 %4 to i8
  store i8 %18, ptr %12, align 1
  store i32 %5, ptr %13, align 4
  store ptr %6, ptr %14, align 8
  call void @llvm.lifetime.start.p0(i64 4, ptr %15) #14
  call void @llvm.lifetime.start.p0(i64 4, ptr %16) #14
  call void @llvm.lifetime.start.p0(i64 8, ptr %17) #14
  %19 = load ptr, ptr %10, align 8
  store ptr null, ptr %19, align 8
  %20 = load ptr, ptr %9, align 8
  %21 = load ptr, ptr %11, align 8
  %22 = load i8, ptr %12, align 1, !range !8, !noundef !9
  %23 = trunc i8 %22 to i1
  %24 = load i32, ptr %13, align 4
  %25 = call i32 @get_CDR_ulong(ptr noundef %20, ptr noundef %21, i1 noundef zeroext %23, i32 noundef %24)
  store i32 %25, ptr %15, align 4
  %26 = load i32, ptr %15, align 4
  %27 = icmp ugt i32 %26, 200
  br i1 %27, label %28, label %33

28:                                               ; preds = %7
  br label %29

29:                                               ; preds = %28
  %30 = load i32, ptr %15, align 4
  call void (ptr, i32, ptr, i64, ptr, ptr, ...) @ws_log_full(ptr noundef @.str.2, i32 noundef 5, ptr noundef @.str.3, i64 noundef 3925, ptr noundef @__func__.get_CDR_wstring, ptr noundef @.str.4, i32 noundef %30)
  br label %31

31:                                               ; preds = %29
  br label %32

32:                                               ; preds = %31
  store i32 5, ptr %15, align 4
  br label %33

33:                                               ; preds = %32, %7
  %34 = load ptr, ptr %14, align 8
  %35 = getelementptr inbounds nuw %struct.MessageHeader, ptr %34, i32 0, i32 1
  %36 = getelementptr inbounds nuw %struct.Version, ptr %35, i32 0, i32 1
  %37 = load i8, ptr %36, align 1
  %38 = zext i8 %37 to i32
  %39 = icmp slt i32 %38, 2
  br i1 %39, label %40, label %43

40:                                               ; preds = %33
  %41 = load i32, ptr %15, align 4
  %42 = mul i32 %41, 2
  store i32 %42, ptr %15, align 4
  br label %43

43:                                               ; preds = %40, %33
  %44 = load ptr, ptr %9, align 8
  %45 = load ptr, ptr %11, align 8
  %46 = load i32, ptr %45, align 4
  %47 = sub i32 %46, 4
  %48 = call i32 @tvb_reported_length_remaining(ptr noundef %44, i32 noundef %47)
  store i32 %48, ptr %16, align 4
  %49 = load i32, ptr %15, align 4
  %50 = load i32, ptr %16, align 4
  %51 = icmp ugt i32 %49, %50
  br i1 %51, label %52, label %54

52:                                               ; preds = %43
  %53 = load i32, ptr %16, align 4
  store i32 %53, ptr %15, align 4
  br label %54

54:                                               ; preds = %52, %43
  %55 = load i32, ptr %15, align 4
  %56 = icmp ugt i32 %55, 0
  br i1 %56, label %57, label %67

57:                                               ; preds = %54
  %58 = load ptr, ptr %8, align 8
  %59 = load ptr, ptr %9, align 8
  %60 = load ptr, ptr %11, align 8
  %61 = load i32, ptr %15, align 4
  call void @get_CDR_octet_seq(ptr noundef %58, ptr noundef %59, ptr noundef %17, ptr noundef %60, i32 noundef %61)
  %62 = load ptr, ptr %8, align 8
  %63 = load ptr, ptr %17, align 8
  %64 = load i32, ptr %15, align 4
  %65 = call ptr @make_printable_string(ptr noundef %62, ptr noundef %63, i32 noundef %64)
  %66 = load ptr, ptr %10, align 8
  store ptr %65, ptr %66, align 8
  br label %67

67:                                               ; preds = %57, %54
  %68 = load i32, ptr %15, align 4
  call void @llvm.lifetime.end.p0(i64 8, ptr %17) #14
  call void @llvm.lifetime.end.p0(i64 4, ptr %16) #14
  call void @llvm.lifetime.end.p0(i64 4, ptr %15) #14
  ret i32 %68
}