; Function Attrs: null_pointer_is_valid sspstrong uwtable
define range(i32 0, 401) i32 @get_CDR_wstring(ptr noundef %0, ptr noundef %1, ptr noundef writeonly captures(none) initializes((0, 8)) %2, ptr noundef captures(none) %3, i1 noundef zeroext %4, i32 noundef %5, ptr noundef readonly captures(none) %6) local_unnamed_addr #0 {
  store ptr null, ptr %2, align 8
  %.promoted.i = load i32, ptr %3, align 4
  %8 = add i32 %.promoted.i, %5
  %9 = and i32 %8, 3
  %.not9.i = icmp eq i32 %9, 0
  br i1 %.not9.i, label %11, label %.lr.ph.preheader.i

.lr.ph.preheader.i:                               ; preds = %7
  %10 = or i32 %8, -4
  %sub = sub i32 %.promoted.i, %10
  store i32 %sub, ptr %3, align 4
  br label %11

11:                                               ; preds = %.lr.ph.preheader.i, %7
  %.lcssa.i = phi i32 [ %sub, %.lr.ph.preheader.i ], [ %.promoted.i, %7 ]
  br i1 %4, label %12, label %14

12:                                               ; preds = %11
  %13 = tail call i32 @tvb_get_ntohl(ptr noundef %1, i32 noundef %.lcssa.i)
  br label %get_CDR_ulong.exit

14:                                               ; preds = %11
  %15 = tail call i32 @tvb_get_letohl(ptr noundef %1, i32 noundef %.lcssa.i)
  br label %get_CDR_ulong.exit

get_CDR_ulong.exit:                               ; preds = %12, %14
  %16 = phi i32 [ %13, %12 ], [ %15, %14 ]
  %17 = load i32, ptr %3, align 4
  %18 = add i32 %17, 4
  store i32 %18, ptr %3, align 4
  %19 = icmp ugt i32 %16, 200
  br i1 %19, label %20, label %22

20:                                               ; preds = %get_CDR_ulong.exit
  tail call void (ptr, i32, ptr, i64, ptr, ptr, ...) @ws_log_full(ptr noundef nonnull @.str.2, i32 noundef 5, ptr noundef nonnull @.str.3, i64 noundef 3925, ptr noundef nonnull @__func__.get_CDR_wstring, ptr noundef nonnull @.str.4, i32 noundef %16)
  %.pre = load i32, ptr %3, align 4
  %21 = add i32 %.pre, -4
  br label %22

22:                                               ; preds = %20, %get_CDR_ulong.exit
  %23 = phi i32 [ %21, %20 ], [ %17, %get_CDR_ulong.exit ]
  %.0 = phi i32 [ 5, %20 ], [ %16, %get_CDR_ulong.exit ]
  %24 = getelementptr inbounds nuw i8, ptr %6, i64 5
  %25 = load i8, ptr %24, align 1
  %26 = icmp ult i8 %25, 2
  %27 = zext i1 %26 to i32
  %spec.select = shl nuw nsw i32 %.0, %27
  %28 = tail call i32 @tvb_reported_length_remaining(ptr noundef %1, i32 noundef %23)
  %.2 = tail call i32 @llvm.umin.i32(i32 %spec.select, i32 %28)
  %.not = icmp eq i32 %.2, 0
  br i1 %.not, label %50, label %.lr.ph.i

.lr.ph.i:                                         ; preds = %22
  %29 = load i32, ptr %3, align 4
  tail call void @tvb_ensure_bytes_exist(ptr noundef %1, i32 noundef %29, i32 noundef %.2)
  %30 = add nuw nsw i32 %.2, 1
  %31 = zext nneg i32 %30 to i64
  %32 = tail call noalias ptr @wmem_alloc0(ptr noundef %0, i64 noundef %31) #18
  %33 = load i32, ptr %3, align 4
  %34 = zext nneg i32 %.2 to i64
  %35 = tail call ptr @tvb_memcpy(ptr noundef %1, ptr noundef %32, i32 noundef %33, i64 noundef %34)
  %36 = load i32, ptr %3, align 4
  %37 = add i32 %36, %.2
  store i32 %37, ptr %3, align 4
  %38 = tail call noalias ptr @wmem_alloc0(ptr noundef %0, i64 noundef %31) #18
  %39 = tail call ptr @__memcpy_chk(ptr noundef %38, ptr noundef readonly %32, i64 noundef range(i64 0, 4294967296) %34, i64 noundef %31) #17, !alias.scope !25
  %40 = load ptr, ptr @g_ascii_table, align 8
  br label %41

41:                                               ; preds = %49, %.lr.ph.i
  %indvars.iv.i = phi i64 [ 0, %.lr.ph.i ], [ %indvars.iv.next.i, %49 ]
  %42 = getelementptr i8, ptr %38, i64 %indvars.iv.i
  %43 = load i8, ptr %42, align 1
  %44 = zext i8 %43 to i64
  %45 = getelementptr i16, ptr %40, i64 %44
  %46 = load i16, ptr %45, align 2
  %47 = and i16 %46, 64
  %.not.i = icmp eq i16 %47, 0
  br i1 %.not.i, label %48, label %49

48:                                               ; preds = %41
  store i8 46, ptr %42, align 1
  br label %49

49:                                               ; preds = %48, %41
  %indvars.iv.next.i = add nuw nsw i64 %indvars.iv.i, 1
  %exitcond.not.i = icmp eq i64 %indvars.iv.next.i, %34
  br i1 %exitcond.not.i, label %make_printable_string.exit, label %41, !llvm.loop !10

make_printable_string.exit:                       ; preds = %49
  store ptr %38, ptr %2, align 8
  br label %50

50:                                               ; preds = %make_printable_string.exit, %22
  ret i32 %.2
}